target datalayout = "e-m:e-p270:32:32-p271:32:32-p272:64:64-i64:64-i128:128-f80:128-n8:16:32:64-S128"
target triple = "x86_64-pc-linux-gnu"

%struct._ec_list_element_st = type { i32, ptr, ptr, ptr }
%struct.EC_builtin_curve = type { i32, ptr }

; Function Attrs: nounwind uwtable
define i64 @EC_get_builtin_curves(ptr noundef %0, i64 noundef %1) #0 {
  %3 = alloca i64, align 8
  %4 = alloca ptr, align 8
  %5 = alloca i64, align 8
  %6 = alloca i64, align 8
  %7 = alloca i64, align 8
  %8 = alloca i32, align 4
  store ptr %0, ptr %4, align 8, !tbaa !30
  store i64 %1, ptr %5, align 8, !tbaa !16
  call void @llvm.lifetime.start.p0(i64 8, ptr %6) #6
  call void @llvm.lifetime.start.p0(i64 8, ptr %7) #6
  %9 = load ptr, ptr %4, align 8, !tbaa !30
  %10 = icmp eq ptr %9, null
  br i1 %10, label %14, label %11

11:                                               ; preds = %2
  %12 = load i64, ptr %5, align 8, !tbaa !16
  %13 = icmp eq i64 %12, 0
  br i1 %13, label %14, label %15

14:                                               ; preds = %11, %2
  store i64 82, ptr %3, align 8
  store i32 1, ptr %8, align 4
  br label %48

15:                                               ; preds = %11
  %16 = load i64, ptr %5, align 8, !tbaa !16
  %17 = icmp ult i64 %16, 82
  br i1 %17, label %18, label %20

18:                                               ; preds = %15
  %19 = load i64, ptr %5, align 8, !tbaa !16
  br label %21

20:                                               ; preds = %15
  br label %21

21:                                               ; preds = %20, %18
  %22 = phi i64 [ %19, %18 ], [ 82, %20 ]
  store i64 %22, ptr %7, align 8, !tbaa !16
  store i64 0, ptr %6, align 8, !tbaa !16
  br label %23

23:                                               ; preds = %44, %21
  %24 = load i64, ptr %6, align 8, !tbaa !16
  %25 = load i64, ptr %7, align 8, !tbaa !16
  %26 = icmp ult i64 %24, %25
  br i1 %26, label %27, label %47

27:                                               ; preds = %23
  %28 = load i64, ptr %6, align 8, !tbaa !16
  %29 = getelementptr inbounds nuw [82 x %struct._ec_list_element_st], ptr @curve_list, i64 0, i64 %28
  %30 = getelementptr inbounds nuw %struct._ec_list_element_st, ptr %29, i32 0, i32 0
  %31 = load i32, ptr %30, align 16, !tbaa !18
  %32 = load ptr, ptr %4, align 8, !tbaa !30
  %33 = load i64, ptr %6, align 8, !tbaa !16
  %34 = getelementptr inbounds nuw %struct.EC_builtin_curve, ptr %32, i64 %33
  %35 = getelementptr inbounds nuw %struct.EC_builtin_curve, ptr %34, i32 0, i32 0
  store i32 %31, ptr %35, align 8, !tbaa !46
  %36 = load i64, ptr %6, align 8, !tbaa !16
  %37 = getelementptr inbounds nuw [82 x %struct._ec_list_element_st], ptr @curve_list, i64 0, i64 %36
  %38 = getelementptr inbounds nuw %struct._ec_list_element_st, ptr %37, i32 0, i32 3
  %39 = load ptr, ptr %38, align 8, !tbaa !48
  %40 = load ptr, ptr %4, align 8, !tbaa !30
  %41 = load i64, ptr %6, align 8, !tbaa !16
  %42 = getelementptr inbounds nuw %struct.EC_builtin_curve, ptr %40, i64 %41
  %43 = getelementptr inbounds nuw %struct.EC_builtin_curve, ptr %42, i32 0, i32 1
  store ptr %39, ptr %43, align 8, !tbaa !49
  br label %44

44:                                               ; preds = %27
  %45 = load i64, ptr %6, align 8, !tbaa !16
  %46 = add i64 %45, 1
  store i64 %46, ptr %6, align 8, !tbaa !16
  br label %23, !llvm.loop !50

47:                                               ; preds = %23
  store i64 82, ptr %3, align 8
  store i32 1, ptr %8, align 4
  br label %48

48:                                               ; preds = %47, %14
  call void @llvm.lifetime.end.p0(i64 8, ptr %7) #6
  call void @llvm.lifetime.end.p0(i64 8, ptr %6) #6
  %49 = load i64, ptr %3, align 8
  ret i64 %49
}