; Function Attrs: nofree norecurse nosync nounwind memory(argmem: write) uwtable
define noundef i64 @EC_get_builtin_curves(ptr noundef writeonly captures(address_is_null) %0, i64 noundef %1) local_unnamed_addr #3 {
  %3 = icmp eq ptr %0, null
  %4 = icmp eq i64 %1, 0
  %or.cond = or i1 %3, %4
  br i1 %or.cond, label %.loopexit, label %.lr.ph.preheader

.lr.ph.preheader:                                 ; preds = %2
  %5 = tail call i64 @llvm.umin.i64(i64 %1, i64 82)
  br label %.lr.ph

.lr.ph:                                           ; preds = %.lr.ph.preheader, %.lr.ph
  %.01416 = phi i64 [ %12, %.lr.ph ], [ 0, %.lr.ph.preheader ]
  %6 = getelementptr inbounds nuw [82 x %struct._ec_list_element_st], ptr @curve_list, i64 0, i64 %.01416
  %7 = load i32, ptr %6, align 16, !tbaa !5
  %8 = getelementptr inbounds nuw %struct.EC_builtin_curve, ptr %0, i64 %.01416
  store i32 %7, ptr %8, align 8, !tbaa !28
  %9 = getelementptr inbounds nuw i8, ptr %6, i64 24
  %10 = load ptr, ptr %9, align 8, !tbaa !30
  %11 = getelementptr inbounds nuw i8, ptr %8, i64 8
  store ptr %10, ptr %11, align 8, !tbaa !31
  %12 = add nuw nsw i64 %.01416, 1
  %exitcond.not = icmp eq i64 %12, %5
  br i1 %exitcond.not, label %.loopexit, label %.lr.ph, !llvm.loop !32

.loopexit:                                        ; preds = %.lr.ph, %2
  ret i64 82
}